Certificate:
    Data:
        Version: 3 (0x2)
        Serial Number: 0 (0x0)
    Signature Algorithm: sha256WithRSAEncryption
        Issuer: C=CN, ST=Liaoning, L=Dalian, O=localhost, CN=MIHUI
        Validity
            Not Before: Jul  3 04:37:37 2023 GMT
            Not After : Jun 30 04:37:37 2033 GMT
        Subject: C=CN, ST=Liaoning, O=localhost, CN=HUNHE
        Subject Public Key Info:
            Public Key Algorithm: rsaEncryption
                Public-Key: (2048 bit)
                Modulus:
                    00:ee:c5:2c:6c:24:a5:e2:a8:e1:69:83:0c:ed:28:
                    a7:e6:c1:40:d2:50:11:34:b2:a0:78:af:df:5a:90:
                    26:a4:43:3e:57:81:28:c5:22:61:89:6e:4f:6d:ee:
                    8d:d1:f9:f4:29:66:43:22:97:f7:6e:89:0c:86:8d:
                    21:7e:87:93:8e:1b:4c:34:9a:24:1b:b9:dd:ec:b3:
                    bb:72:a3:41:b2:26:29:63:3f:23:ba:0c:73:16:bf:
                    a0:dc:d9:75:1b:3c:9b:01:9c:3c:1d:d6:27:55:bc:
                    79:07:6f:b0:a0:01:99:9f:65:43:71:0a:06:ba:6b:
                    fb:69:d4:08:b8:b6:bd:3c:de:bf:c6:09:66:52:40:
                    5a:0f:0e:48:7a:f2:e4:c9:36:a9:8c:58:a4:17:b1:
                    c7:f0:3b:05:1f:36:65:6c:72:83:87:38:6e:2c:1c:
                    21:df:f5:49:c3:fe:35:8d:04:0a:2a:d5:81:fa:1f:
                    32:28:47:f6:06:c6:f6:1a:54:49:4a:d3:3d:3b:28:
                    3d:34:63:eb:7e:fe:7b:78:16:53:4e:83:48:ba:2c:
                    85:f4:2e:8f:a5:53:03:91:b7:0c:e8:a0:fe:21:f4:
                    51:87:51:d9:d1:21:78:32:28:ea:f2:85:4b:f5:be:
                    bc:46:a0:af:6b:73:d4:b8:5e:4d:5b:04:a8:86:5e:
                    a7:2b
                Exponent: 65537 (0x10001)
        X509v3 extensions:
            X509v3 Basic Constraints: 
                CA:FALSE
            X509v3 Key Usage: 
                Digital Signature, Non Repudiation, Key Encipherment
            X509v3 Subject Alternative Name: 
                DNS:hunhe.app.com, DNS:localhost, DNS:*.localhost
    Signature Algorithm: sha256WithRSAEncryption
         38:0f:e6:be:e3:18:37:0d:dd:fc:9e:ec:8a:a7:1c:0a:4c:7e:
         c5:d5:02:79:2d:d4:bb:e0:d7:6e:37:d8:ac:b0:d0:78:89:e4:
         92:a2:92:2d:89:39:2f:e6:9e:aa:11:6d:e1:61:96:50:cc:0f:
         86:dd:5c:fb:34:95:0e:a7:dc:67:4f:b3:9f:27:d9:ec:d0:c7:
         da:2d:4b:7c:3d:0d:c6:4c:a7:5c:ce:9c:b0:75:74:cc:28:d2:
         d9:3e:32:f2:03:82:ff:cb:dc:7a:a5:91:02:17:bd:e5:a5:f8:
         d2:e4:3c:db:a7:12:c2:91:68:1d:70:0f:42:68:2f:db:66:73:
         54:7d:44:c5:d9:fc:d4:8b:ab:0c:31:a4:2c:bb:22:59:aa:3d:
         66:c7:c4:bf:7c:59:0e:09:c3:9d:e7:1a:f5:67:49:3c:c1:bd:
         63:ac:67:db:f0:de:ad:15:ae:32:83:7f:ae:66:57:f6:4d:9a:
         5a:8a:f3:ef:6b:04:2b:e8:7d:4b:90:f3:5f:8a:be:e7:39:ad:
         9f:8f:72:a3:ef:f6:ae:23:99:20:35:d2:f6:82:3e:1f:df:ae:
         8e:6c:ba:31:ad:2e:d1:6e:5d:3f:43:93:d1:f9:8f:ac:17:0d:
         35:a6:e2:d4:4b:1c:10:fe:29:b6:f2:ac:f5:fb:1b:e7:b1:45:
         ac:31:9a:2c
-----BEGIN CERTIFICATE-----
MIIDYDCCAkigAwIBAgIBADANBgkqhkiG9w0BAQsFADBVMQswCQYDVQQGEwJDTjER
MA8GA1UECAwITGlhb25pbmcxDzANBgNVBAcMBkRhbGlhbjESMBAGA1UECgwJbG9j
YWxob3N0MQ4wDAYDVQQDDAVNSUhVSTAeFw0yMzA3MDMwNDM3MzdaFw0zMzA2MzAw
NDM3MzdaMEQxCzAJBgNVBAYTAkNOMREwDwYDVQQIDAhMaWFvbmluZzESMBAGA1UE
CgwJbG9jYWxob3N0MQ4wDAYDVQQDDAVIVU5IRTCCASIwDQYJKoZIhvcNAQEBBQAD
ggEPADCCAQoCggEBAO7FLGwkpeKo4WmDDO0op+bBQNJQETSyoHiv31qQJqRDPleB
KMUiYYluT23ujdH59ClmQyKX926JDIaNIX6Hk44bTDSaJBu53eyzu3KjQbImKWM/
I7oMcxa/oNzZdRs8mwGcPB3WJ1W8eQdvsKABmZ9lQ3EKBrpr+2nUCLi2vTzev8YJ
ZlJAWg8OSHry5Mk2qYxYpBexx/A7BR82ZWxyg4c4biwcId/1ScP+NY0ECirVgfof
MihH9gbG9hpUSUrTPTsoPTRj637+e3gWU06DSLoshfQuj6VTA5G3DOig/iH0UYdR
2dEheDIo6vKFS/W+vEagr2tz1LheTVsEqIZepysCAwEAAaNMMEowCQYDVR0TBAIw
ADALBgNVHQ8EBAMCBeAwMAYDVR0RBCkwJ4INaHVuaGUuYXBwLmNvbYIJbG9jYWxo
b3N0ggsqLmxvY2FsaG9zdDANBgkqhkiG9w0BAQsFAAOCAQEAOA/mvuMYNw3d/J7s
iqccCkx+xdUCeS3Uu+DXbjfYrLDQeInkkqKSLYk5L+aeqhFt4WGWUMwPht1c+zSV
DqfcZ0+znyfZ7NDH2i1LfD0NxkynXM6csHV0zCjS2T4y8gOC/8vceqWRAhe95aX4
0uQ826cSwpFoHXAPQmgv22ZzVH1Exdn81IurDDGkLLsiWao9ZsfEv3xZDgnDneca
9WdJPMG9Y6xn2/DerRWuMoN/rmZX9k2aWorz72sEK+h9S5DzX4q+5zmtn49yo+/2
riOZIDXS9oI+H9+ujmy6Ma0u0W5dP0OT0fmPrBcNNabi1EscEP4ptvKs9fsb57FF
rDGaLA==
-----END CERTIFICATE-----
