Certificate:
    Data:
        Version: 3 (0x2)
        Serial Number: 0 (0x0)
    Signature Algorithm: sha256WithRSAEncryption
        Issuer: C=CN, ST=Liaoning, L=Dalian, O=hunhe.app.com, CN=MIGG
        Validity
            Not Before: Dec 18 05:38:58 2023 GMT
            Not After : Dec 15 05:38:58 2033 GMT
        Subject: C=CN, ST=Liaoning, O=hunhe.app.com, CN=Hunhe
        Subject Public Key Info:
            Public Key Algorithm: rsaEncryption
                Public-Key: (2048 bit)
                Modulus:
                    00:cf:08:0d:a0:44:ed:fc:b0:6c:5a:37:e0:5e:8c:
                    df:b2:91:3e:0e:69:39:75:80:e1:01:4f:fc:91:e3:
                    f2:56:51:31:21:ca:70:6f:ab:23:5b:5a:5e:8f:7a:
                    ab:59:20:32:e3:e6:7a:d6:be:38:25:55:6e:2d:1b:
                    9d:cd:7b:ec:2b:a6:98:15:72:94:49:2f:ef:68:de:
                    d5:42:b7:91:19:36:13:f4:e8:0d:7a:b0:80:55:69:
                    e2:46:dd:64:58:b2:0d:80:c2:03:0b:3e:41:ff:37:
                    87:18:89:b0:77:4a:ab:97:23:c5:36:ad:65:5c:de:
                    8b:f8:ce:ed:27:a6:da:03:da:27:b0:c0:a9:53:cb:
                    8f:71:79:95:d5:14:7f:d0:f6:c4:ec:2e:6c:f8:e6:
                    72:0a:fc:30:6a:d0:18:a1:b0:f4:48:6f:da:0c:e7:
                    02:6c:8e:e2:8d:83:17:a9:cd:72:73:33:cf:4e:80:
                    94:a6:31:67:9f:44:0d:ee:65:f4:e6:36:e7:c7:6d:
                    7f:85:30:43:31:79:23:39:ef:84:96:35:a0:d1:18:
                    b6:3f:f6:fb:fa:bd:54:0e:f6:f3:a9:4a:b6:49:08:
                    52:83:43:f9:2a:d4:3b:04:6a:4c:1b:9a:70:4e:8e:
                    61:68:fc:7e:e0:95:f7:9d:0d:4e:ab:0c:7b:d5:9b:
                    aa:1f
                Exponent: 65537 (0x10001)
        X509v3 extensions:
            X509v3 Basic Constraints: 
                CA:FALSE
            X509v3 Key Usage: 
                Digital Signature, Non Repudiation, Key Encipherment
            X509v3 Subject Alternative Name: 
                DNS:hunhe.app.com
    Signature Algorithm: sha256WithRSAEncryption
         2e:8d:c0:98:49:e2:92:46:05:a6:07:9e:45:b7:5b:26:3e:45:
         f9:b0:7f:27:44:92:c1:29:c5:e3:3d:4b:ae:f8:23:04:78:2e:
         b6:fe:97:18:4d:c1:08:d0:c6:2b:6d:dd:e9:af:08:b3:3b:0a:
         ba:20:9e:7b:37:0c:7e:12:91:41:9c:4a:02:d7:e6:fd:7f:ba:
         ac:4f:ab:d2:ca:6b:2d:67:8c:23:12:12:ac:42:25:77:66:43:
         cf:ff:d4:e4:80:a2:07:8d:2a:ad:f6:5f:b2:76:17:55:37:c4:
         5f:01:d1:b6:34:b0:e6:a0:d8:3e:8f:bb:9a:ff:74:57:81:09:
         23:49:b8:7b:e3:87:07:16:e7:96:3b:ca:ba:88:b5:05:94:3c:
         33:99:90:d5:de:f7:a7:75:5b:57:ba:f6:97:23:27:90:6b:35:
         22:a7:21:1c:52:06:a8:4d:c8:4e:32:26:e7:de:67:11:6e:70:
         61:88:0a:ab:cc:11:7d:e1:59:69:cd:3e:13:50:3b:5d:ad:17:
         f0:bc:da:76:80:fd:a3:18:8a:27:c2:f4:53:74:5f:b3:90:74:
         8a:b7:fd:99:83:40:2d:7d:52:c5:be:2a:07:2a:95:06:69:4f:
         e1:5b:32:b9:5f:79:a7:92:90:0c:dd:73:54:a5:81:ef:28:ba:
         39:87:d1:8a
-----BEGIN CERTIFICATE-----
MIIDTzCCAjegAwIBAgIBADANBgkqhkiG9w0BAQsFADBYMQswCQYDVQQGEwJDTjER
MA8GA1UECAwITGlhb25pbmcxDzANBgNVBAcMBkRhbGlhbjEWMBQGA1UECgwNaHVu
aGUuYXBwLmNvbTENMAsGA1UEAwwETUlHRzAeFw0yMzEyMTgwNTM4NThaFw0zMzEy
MTUwNTM4NThaMEgxCzAJBgNVBAYTAkNOMREwDwYDVQQIDAhMaWFvbmluZzEWMBQG
A1UECgwNaHVuaGUuYXBwLmNvbTEOMAwGA1UEAwwFSHVuaGUwggEiMA0GCSqGSIb3
DQEBAQUAA4IBDwAwggEKAoIBAQDPCA2gRO38sGxaN+BejN+ykT4OaTl1gOEBT/yR
4/JWUTEhynBvqyNbWl6PeqtZIDLj5nrWvjglVW4tG53Ne+wrppgVcpRJL+9o3tVC
t5EZNhP06A16sIBVaeJG3WRYsg2AwgMLPkH/N4cYibB3SquXI8U2rWVc3ov4zu0n
ptoD2iewwKlTy49xeZXVFH/Q9sTsLmz45nIK/DBq0BihsPRIb9oM5wJsjuKNgxep
zXJzM89OgJSmMWefRA3uZfTmNufHbX+FMEMxeSM574SWNaDRGLY/9vv6vVQO9vOp
SrZJCFKDQ/kq1DsEakwbmnBOjmFo/H7glfedDU6rDHvVm6ofAgMBAAGjNDAyMAkG
A1UdEwQCMAAwCwYDVR0PBAQDAgXgMBgGA1UdEQQRMA+CDWh1bmhlLmFwcC5jb20w
DQYJKoZIhvcNAQELBQADggEBAC6NwJhJ4pJGBaYHnkW3WyY+RfmwfydEksEpxeM9
S674IwR4Lrb+lxhNwQjQxitt3emvCLM7Crognns3DH4SkUGcSgLX5v1/uqxPq9LK
ay1njCMSEqxCJXdmQ8//1OSAogeNKq32X7J2F1U3xF8B0bY0sOag2D6Pu5r/dFeB
CSNJuHvjhwcW55Y7yrqItQWUPDOZkNXe96d1W1e69pcjJ5BrNSKnIRxSBqhNyE4y
JufeZxFucGGICqvMEX3hWWnNPhNQO12tF/C82naA/aMYiifC9FN0X7OQdIq3/ZmD
QC19UsW+KgcqlQZpT+FbMrlfeaeSkAzdc1Slge8oujmH0Yo=
-----END CERTIFICATE-----
